target datalayout = "e-m:e-p270:32:32-p271:32:32-p272:64:64-i64:64-i128:128-f80:128-n8:16:32:64-S128"
target triple = "x86_64-unknown-linux-gnu"

%"class.facebook::velox::Buffer" = type { ptr, ptr, ptr, i64, i64, %"struct.std::atomic.30", i8, [2 x i64] }
%"struct.std::atomic.30" = type { %"struct.std::__atomic_base.31" }
%"struct.std::__atomic_base.31" = type { i32 }

; Function Attrs: mustprogress nounwind uwtable
define linkonce_odr noundef i64 @_ZNK8facebook5velox6Buffer4sizeEv(ptr noundef nonnull align 8 dereferenceable(64) %this) #0 comdat align 2 {
entry:
  %this.addr = alloca ptr, align 8
  store ptr %this, ptr %this.addr, align 8
  %this1 = load ptr, ptr %this.addr, align 8
  %size_ = getelementptr inbounds %"class.facebook::velox::Buffer", ptr %this1, i32 0, i32 3
  %0 = load i64, ptr %size_, align 8
  ret i64 %0
}

; Function Attrs: mustprogress uwtable
define linkonce_odr noundef ptr @_ZNK8facebook5velox6Buffer9asMutableIcEEPT_v(ptr noundef nonnull align 8 dereferenceable(64) %this) #1 comdat align 2 {
entry:
  %this.addr = alloca ptr, align 8
  store ptr %this, ptr %this.addr, align 8
  %this1 = load ptr, ptr %this.addr, align 8
  %vtable = load ptr, ptr %this1, align 8
  %vfn = getelementptr inbounds ptr, ptr %vtable, i64 3
  %0 = load ptr, ptr %vfn, align 8
  %call = call noundef zeroext i1 %0(ptr noundef nonnull align 8 dereferenceable(64) %this1)
  %lnot = xor i1 %call, true
  %lnot2 = xor i1 %lnot, true
  br i1 %lnot2, label %if.then, label %if.end

if.then:                                          ; preds = %entry
  call void @llvm.trap()
  br label %if.end

if.end:                                           ; preds = %if.then, %entry
  %data_ = getelementptr inbounds %"class.facebook::velox::Buffer", ptr %this1, i32 0, i32 2
  %1 = load ptr, ptr %data_, align 8
  ret ptr %1
}

; Function Attrs: mustprogress uwtable
define noundef ptr @_ZN8facebook5velox10FlatVectorINS0_10StringViewEE27getRawStringBufferWithSpaceEib(ptr noundef nonnull align 8 dereferenceable(280) %this, i32 noundef %0, i1 noundef zeroext %exactSize) #1 align 2 {
entry:
  %this.addr = alloca ptr, align 8
  %.addr = alloca i32, align 4
  %exactSize.addr = alloca i8, align 1
  %buffer = alloca ptr, align 8
  %rawBuffer = alloca ptr, align 8
  store ptr %this, ptr %this.addr, align 8
  store i32 %0, ptr %.addr, align 4
  %frombool = zext i1 %exactSize to i8
  store i8 %frombool, ptr %exactSize.addr, align 1
  %this1 = load ptr, ptr %this.addr, align 8
  %1 = load i32, ptr %.addr, align 4
  %2 = load i8, ptr %exactSize.addr, align 1
  %tobool = trunc i8 %2 to i1
  %call = call noundef ptr @_ZN8facebook5velox10FlatVectorINS0_10StringViewEE18getBufferWithSpaceEib(ptr noundef nonnull align 8 dereferenceable(280) %this1, i32 noundef %1, i1 noundef zeroext %tobool)
  store ptr %call, ptr %buffer, align 8
  %3 = load ptr, ptr %buffer, align 8
  %call2 = call noundef ptr @_ZNK8facebook5velox6Buffer9asMutableIcEEPT_v(ptr noundef nonnull align 8 dereferenceable(64) %3)
  %4 = load ptr, ptr %buffer, align 8
  %call3 = call noundef i64 @_ZNK8facebook5velox6Buffer4sizeEv(ptr noundef nonnull align 8 dereferenceable(64) %4)
  %add.ptr = getelementptr inbounds i8, ptr %call2, i64 %call3
  store ptr %add.ptr, ptr %rawBuffer, align 8
  %5 = load ptr, ptr %buffer, align 8
  %6 = load ptr, ptr %buffer, align 8
  %call4 = call noundef i64 @_ZNK8facebook5velox6Buffer4sizeEv(ptr noundef nonnull align 8 dereferenceable(64) %6)
  %7 = load i32, ptr %.addr, align 4
  %conv = sext i32 %7 to i64
  %add = add i64 %call4, %conv
  %vtable = load ptr, ptr %5, align 8
  %vfn = getelementptr inbounds ptr, ptr %vtable, i64 2
  %8 = load ptr, ptr %vfn, align 8
  call void %8(ptr noundef nonnull align 8 dereferenceable(64) %5, i64 noundef %add)
  %9 = load ptr, ptr %rawBuffer, align 8
  ret ptr %9
}