; Function Attrs: mustprogress uwtable
define noundef ptr @_ZN8facebook5velox10FlatVectorINS0_10StringViewEE27getRawStringBufferWithSpaceEib(ptr noundef nonnull align 8 dereferenceable(280) %this, i32 noundef %0, i1 noundef zeroext %exactSize) local_unnamed_addr #3 align 2 {
entry:
  %call = tail call noundef ptr @_ZN8facebook5velox10FlatVectorINS0_10StringViewEE18getBufferWithSpaceEib(ptr noundef nonnull align 8 dereferenceable(280) %this, i32 noundef %0, i1 noundef zeroext %exactSize)
  %vtable.i = load ptr, ptr %call, align 8
  %vfn.i = getelementptr inbounds i8, ptr %vtable.i, i64 24
  %1 = load ptr, ptr %vfn.i, align 8
  %call.i = tail call noundef zeroext i1 %1(ptr noundef nonnull align 8 dereferenceable(64) %call)
  br i1 %call.i, label %if.then.i, label %_ZNK8facebook5velox6Buffer9asMutableIcEEPT_v.exit

if.then.i:                                        ; preds = %entry
  tail call void @llvm.trap()
  unreachable

_ZNK8facebook5velox6Buffer9asMutableIcEEPT_v.exit: ; preds = %entry
  %data_.i = getelementptr inbounds i8, ptr %call, i64 16
  %2 = load ptr, ptr %data_.i, align 8
  %size_.i = getelementptr inbounds i8, ptr %call, i64 24
  %3 = load i64, ptr %size_.i, align 8
  %add.ptr = getelementptr inbounds i8, ptr %2, i64 %3
  %conv = sext i32 %0 to i64
  %add = add i64 %3, %conv
  %vtable = load ptr, ptr %call, align 8
  %vfn = getelementptr inbounds i8, ptr %vtable, i64 16
  %4 = load ptr, ptr %vfn, align 8
  tail call void %4(ptr noundef nonnull align 8 dereferenceable(64) %call, i64 noundef %add)
  ret ptr %add.ptr
}